; Function Attrs: mustprogress nofree nounwind willreturn memory(read, inaccessiblemem: none) uwtable
define dso_local noundef zeroext i1 @_ZN5cmsys11SystemTools16StringStartsWithERKNSt7__cxx1112basic_stringIcSt11char_traitsIcESaIcEEEPKc(ptr noundef nonnull readonly align 8 captures(none) dereferenceable(32) %0, ptr noundef readonly %1) local_unnamed_addr #23 align 2 {
  %.not = icmp eq ptr %1, null
  br i1 %.not, label %10, label %3

3:                                                ; preds = %2
  %4 = getelementptr inbounds nuw i8, ptr %0, i64 8
  %5 = load i64, ptr %4, align 8, !tbaa !18
  %6 = tail call i64 @strlen(ptr noundef nonnull dereferenceable(1) %1) #43
  %.not10 = icmp ult i64 %5, %6
  br i1 %.not10, label %10, label %7

7:                                                ; preds = %3
  %8 = load ptr, ptr %0, align 8, !tbaa !21
  %9 = tail call i32 @strncmp(ptr noundef %8, ptr noundef nonnull %1, i64 noundef %6) #43
  %.not11 = icmp eq i32 %9, 0
  br label %10

10:                                               ; preds = %3, %7, %2
  %.0 = phi i1 [ false, %2 ], [ false, %3 ], [ %.not11, %7 ]
  ret i1 %.0
}